target datalayout = "e-m:e-p270:32:32-p271:32:32-p272:64:64-i64:64-i128:128-f80:128-n8:16:32:64-S128"
target triple = "x86_64-pc-linux-gnu"

@hf_generic_family = internal global i32 0, align 4
@hf_generic_version = internal global i32 0, align 4
@ett_generic_clientready = internal global i32 0, align 4
@.str.759 = private unnamed_addr constant [28 x i8] c"Accepted requested services\00", align 1

; Function Attrs: null_pointer_is_valid sspstrong uwtable
define internal i32 @dissect_aim_generic_capack(ptr noundef %0, ptr noundef %1, ptr noundef %2) #0 {
  %4 = alloca ptr, align 8
  %5 = alloca ptr, align 8
  %6 = alloca ptr, align 8
  %7 = alloca i32, align 4
  %8 = alloca ptr, align 8
  store ptr %0, ptr %4, align 8
  store ptr %1, ptr %5, align 8
  store ptr %2, ptr %6, align 8
  call void @llvm.lifetime.start.p0(i64 4, ptr %7) #13
  store i32 0, ptr %7, align 4
  call void @llvm.lifetime.start.p0(i64 8, ptr %8) #13
  %9 = load ptr, ptr %6, align 8
  %10 = load ptr, ptr %4, align 8
  %11 = load i32, ptr %7, align 4
  %12 = load i32, ptr @ett_generic_clientready, align 4
  %13 = call ptr @proto_tree_add_subtree(ptr noundef %9, ptr noundef %10, i32 noundef %11, i32 noundef -1, i32 noundef %12, ptr noundef null, ptr noundef @.str.759)
  store ptr %13, ptr %8, align 8
  br label %14

14:                                               ; preds = %19, %3
  %15 = load ptr, ptr %4, align 8
  %16 = load i32, ptr %7, align 4
  %17 = call i32 @tvb_reported_length_remaining(ptr noundef %15, i32 noundef %16)
  %18 = icmp sgt i32 %17, 0
  br i1 %18, label %19, label %34

19:                                               ; preds = %14
  %20 = load ptr, ptr %8, align 8
  %21 = load i32, ptr @hf_generic_family, align 4
  %22 = load ptr, ptr %4, align 8
  %23 = load i32, ptr %7, align 4
  %24 = call ptr @proto_tree_add_item(ptr noundef %20, i32 noundef %21, ptr noundef %22, i32 noundef %23, i32 noundef 2, i32 noundef 0)
  %25 = load i32, ptr %7, align 4
  %26 = add i32 %25, 2
  store i32 %26, ptr %7, align 4
  %27 = load ptr, ptr %8, align 8
  %28 = load i32, ptr @hf_generic_version, align 4
  %29 = load ptr, ptr %4, align 8
  %30 = load i32, ptr %7, align 4
  %31 = call ptr @proto_tree_add_item(ptr noundef %27, i32 noundef %28, ptr noundef %29, i32 noundef %30, i32 noundef 2, i32 noundef 0)
  %32 = load i32, ptr %7, align 4
  %33 = add i32 %32, 2
  store i32 %33, ptr %7, align 4
  br label %14, !llvm.loop !35

34:                                               ; preds = %14
  %35 = load i32, ptr %7, align 4
  call void @llvm.lifetime.end.p0(i64 8, ptr %8) #13
  call void @llvm.lifetime.end.p0(i64 4, ptr %7) #13
  ret i32 %35
}