; Function Attrs: null_pointer_is_valid sspstrong uwtable
define internal noundef i32 @dissect_aim_generic_capack(ptr noundef %0, ptr readnone captures(none) %1, ptr noundef %2) #0 {
  %4 = load i32, ptr @ett_generic_clientready, align 4
  %5 = tail call ptr @proto_tree_add_subtree(ptr noundef %2, ptr noundef %0, i32 noundef 0, i32 noundef -1, i32 noundef %4, ptr noundef null, ptr noundef nonnull @.str.759)
  %6 = tail call i32 @tvb_reported_length_remaining(ptr noundef %0, i32 noundef 0)
  %7 = icmp sgt i32 %6, 0
  br i1 %7, label %.lr.ph, label %._crit_edge

.lr.ph:                                           ; preds = %3, %.lr.ph
  %.013 = phi i32 [ %13, %.lr.ph ], [ 0, %3 ]
  %8 = load i32, ptr @hf_generic_family, align 4
  %9 = tail call ptr @proto_tree_add_item(ptr noundef %5, i32 noundef %8, ptr noundef %0, i32 noundef %.013, i32 noundef 2, i32 noundef 0)
  %10 = or disjoint i32 %.013, 2
  %11 = load i32, ptr @hf_generic_version, align 4
  %12 = tail call ptr @proto_tree_add_item(ptr noundef %5, i32 noundef %11, ptr noundef %0, i32 noundef %10, i32 noundef 2, i32 noundef 0)
  %13 = add i32 %.013, 4
  %14 = tail call i32 @tvb_reported_length_remaining(ptr noundef %0, i32 noundef %13)
  %15 = icmp sgt i32 %14, 0
  br i1 %15, label %.lr.ph, label %._crit_edge, !llvm.loop !34

._crit_edge:                                      ; preds = %.lr.ph, %3
  %.0.lcssa = phi i32 [ 0, %3 ], [ %13, %.lr.ph ]
  ret i32 %.0.lcssa
}